target datalayout = "e-m:e-p270:32:32-p271:32:32-p272:64:64-i64:64-i128:128-f80:128-n8:16:32:64-S128"
target triple = "x86_64-pc-linux-gnu"

%struct.MP = type { i64, [100 x ptr], %union.anon }
%union.anon = type { %struct.MPMAP }
%struct.MPMAP = type { ptr, i64, i64 }
%struct.cl_engine = type { i32, i32, i32, [2 x i32], i32, i32, i32, ptr, i32, i64, i32, i32, i64, i64, i32, i32, i32, i32, ptr, ptr, ptr, ptr, ptr, ptr, ptr, ptr, ptr, ptr, ptr, ptr, ptr, ptr, ptr, ptr, ptr, ptr, ptr, i64, ptr, %struct.crtmgr, ptr, ptr, ptr, ptr, ptr, ptr, ptr, ptr, ptr, ptr, ptr, ptr, ptr, ptr, ptr, ptr, ptr, %struct.cli_all_bc, [7 x ptr], [7 x i32], i32, i32, i32, i32, i64, i64, i64, i64, i64, ptr, ptr, ptr, ptr, ptr, ptr, ptr, ptr, ptr, i32, i32, i32, i64, i64, i64, ptr }
%struct.crtmgr = type { ptr, i32 }
%struct.cli_all_bc = type { ptr, i32, ptr, %struct.cli_environment, i32 }
%struct.cli_environment = type { i32, i32, i32, i32, i32, i32, i32, [65 x i8], [65 x i8], [65 x i8], [65 x i8], [65 x i8], [65 x i8], [65 x i8], i8, i8, i8, i8, i8, i8, i8, i8, i8 }

; Function Attrs: nounwind uwtable
define i32 @mpool_getstats(ptr noundef %0, ptr noundef %1, ptr noundef %2) #0 {
  %4 = alloca i32, align 4
  %5 = alloca ptr, align 8
  %6 = alloca ptr, align 8
  %7 = alloca ptr, align 8
  %8 = alloca i64, align 8
  %9 = alloca i64, align 8
  %10 = alloca ptr, align 8
  %11 = alloca ptr, align 8
  store ptr %0, ptr %5, align 8
  store ptr %1, ptr %6, align 8
  store ptr %2, ptr %7, align 8
  store i64 0, ptr %8, align 8
  store i64 0, ptr %9, align 8
  %12 = load ptr, ptr %5, align 8
  %13 = icmp ne ptr %12, null
  br i1 %13, label %14, label %19

14:                                               ; preds = %3
  %15 = load ptr, ptr %5, align 8
  %16 = getelementptr inbounds %struct.cl_engine, ptr %15, i32 0, i32 0
  %17 = load i32, ptr %16, align 8
  %18 = icmp ne i32 %17, 0
  br i1 %18, label %20, label %19

19:                                               ; preds = %14, %3
  store i32 -1, ptr %4, align 4
  br label %53

20:                                               ; preds = %14
  %21 = load ptr, ptr %5, align 8
  %22 = getelementptr inbounds %struct.cl_engine, ptr %21, i32 0, i32 38
  %23 = load ptr, ptr %22, align 8
  store ptr %23, ptr %11, align 8
  %24 = load ptr, ptr %11, align 8
  %25 = icmp ne ptr %24, null
  br i1 %25, label %27, label %26

26:                                               ; preds = %20
  store i32 -1, ptr %4, align 4
  br label %53

27:                                               ; preds = %20
  %28 = load ptr, ptr %11, align 8
  %29 = getelementptr inbounds %struct.MP, ptr %28, i32 0, i32 2
  store ptr %29, ptr %10, align 8
  br label %30

30:                                               ; preds = %44, %27
  %31 = load ptr, ptr %10, align 8
  %32 = icmp ne ptr %31, null
  br i1 %32, label %33, label %48

33:                                               ; preds = %30
  %34 = load ptr, ptr %10, align 8
  %35 = getelementptr inbounds %struct.MPMAP, ptr %34, i32 0, i32 2
  %36 = load i64, ptr %35, align 8
  %37 = load i64, ptr %8, align 8
  %38 = add i64 %37, %36
  store i64 %38, ptr %8, align 8
  %39 = load ptr, ptr %10, align 8
  %40 = getelementptr inbounds %struct.MPMAP, ptr %39, i32 0, i32 1
  %41 = load i64, ptr %40, align 8
  %42 = load i64, ptr %9, align 8
  %43 = add i64 %42, %41
  store i64 %43, ptr %9, align 8
  br label %44

44:                                               ; preds = %33
  %45 = load ptr, ptr %10, align 8
  %46 = getelementptr inbounds %struct.MPMAP, ptr %45, i32 0, i32 0
  %47 = load ptr, ptr %46, align 8
  store ptr %47, ptr %10, align 8
  br label %30

48:                                               ; preds = %30
  %49 = load i64, ptr %8, align 8
  %50 = load ptr, ptr %6, align 8
  store i64 %49, ptr %50, align 8
  %51 = load i64, ptr %9, align 8
  %52 = load ptr, ptr %7, align 8
  store i64 %51, ptr %52, align 8
  store i32 0, ptr %4, align 4
  br label %53

53:                                               ; preds = %48, %26, %19
  %54 = load i32, ptr %4, align 4
  ret i32 %54
}