; Function Attrs: nofree norecurse nosync nounwind memory(read, argmem: readwrite, inaccessiblemem: none) uwtable
define noundef i32 @mpool_getstats(ptr noundef readonly %0, ptr nocapture noundef writeonly %1, ptr nocapture noundef writeonly %2) local_unnamed_addr #5 {
  %.not = icmp eq ptr %0, null
  br i1 %.not, label %20, label %4

4:                                                ; preds = %3
  %5 = load i32, ptr %0, align 8
  %.not20 = icmp eq i32 %5, 0
  br i1 %.not20, label %20, label %6

6:                                                ; preds = %4
  %7 = getelementptr inbounds i8, ptr %0, i64 256
  %8 = load ptr, ptr %7, align 8
  %.not21 = icmp eq ptr %8, null
  br i1 %.not21, label %20, label %9

9:                                                ; preds = %6
  %10 = getelementptr inbounds i8, ptr %8, i64 808
  br label %11

11:                                               ; preds = %9, %11
  %.01525 = phi ptr [ %10, %9 ], [ %18, %11 ]
  %.01624 = phi i64 [ 0, %9 ], [ %17, %11 ]
  %.01723 = phi i64 [ 0, %9 ], [ %14, %11 ]
  %12 = getelementptr inbounds i8, ptr %.01525, i64 16
  %13 = load i64, ptr %12, align 8
  %14 = add i64 %13, %.01723
  %15 = getelementptr inbounds i8, ptr %.01525, i64 8
  %16 = load i64, ptr %15, align 8
  %17 = add i64 %16, %.01624
  %18 = load ptr, ptr %.01525, align 8
  %.not22 = icmp eq ptr %18, null
  br i1 %.not22, label %19, label %11

19:                                               ; preds = %11
  store i64 %14, ptr %1, align 8
  store i64 %17, ptr %2, align 8
  br label %20

20:                                               ; preds = %6, %3, %4, %19
  %.0 = phi i32 [ 0, %19 ], [ -1, %4 ], [ -1, %3 ], [ -1, %6 ]
  ret i32 %.0
}